; Function Attrs: null_pointer_is_valid sspstrong uwtable
define internal noundef i32 @dissect_kafka_alter_partition_reassignments_response_partition(ptr noundef %0, ptr noundef %1, ptr noundef %2, i32 noundef %3, i16 signext %4) #0 {
  %6 = alloca ptr, align 8
  call void @llvm.lifetime.start.p0(i64 8, ptr nonnull %6) #9
  %7 = load i32, ptr @ett_kafka_partition, align 4
  %8 = call ptr @proto_tree_add_subtree(ptr noundef %2, ptr noundef %0, i32 noundef %3, i32 noundef -1, i32 noundef %7, ptr noundef nonnull %6, ptr noundef nonnull @.str.643)
  %9 = load i32, ptr @hf_kafka_partition_id, align 4
  %10 = call ptr @proto_tree_add_item(ptr noundef %8, i32 noundef %9, ptr noundef %0, i32 noundef %3, i32 noundef 4, i32 noundef 0)
  %11 = call i32 @tvb_get_ntohl(ptr noundef %0, i32 noundef %3)
  %12 = add i32 %3, 4
  %13 = call zeroext i16 @tvb_get_ntohs(ptr noundef %0, i32 noundef %12)
  %14 = load i32, ptr @hf_kafka_error, align 4
  %15 = call ptr @proto_tree_add_item(ptr noundef %8, i32 noundef %14, ptr noundef %0, i32 noundef %12, i32 noundef 2, i32 noundef 0)
  %.not.i.i = icmp eq i16 %13, 0
  br i1 %.not.i.i, label %dissect_kafka_error.exit, label %16

16:                                               ; preds = %5
  %17 = getelementptr inbounds nuw i8, ptr %1, i64 8
  %18 = load ptr, ptr %17, align 8
  %19 = sext i16 %13 to i32
  %20 = call ptr @val_to_str(i32 noundef %19, ptr noundef nonnull @kafka_errors, ptr noundef nonnull @.str.628)
  call void (ptr, i32, ptr, ...) @col_append_fstr(ptr noundef %18, i32 noundef 25, ptr noundef nonnull @.str.742, ptr noundef %20)
  br label %dissect_kafka_error.exit

dissect_kafka_error.exit:                         ; preds = %5, %16
  %21 = add i32 %3, 6
  %22 = load i32, ptr @hf_kafka_error_message, align 4
  %23 = call fastcc i32 @dissect_kafka_string(ptr noundef %8, i32 noundef %22, ptr noundef %0, ptr noundef %1, i32 noundef %21, i32 noundef 0, ptr noundef null, ptr noundef null)
  %24 = load ptr, ptr %6, align 8
  call void @proto_item_set_end(ptr noundef %24, ptr noundef %0, i32 noundef %23)
  call void @llvm.lifetime.end.p0(i64 8, ptr nonnull %6) #9
  ret i32 %23
}